target datalayout = "e-m:e-p270:32:32-p271:32:32-p272:64:64-i64:64-i128:128-f80:128-n8:16:32:64-S128"
target triple = "x86_64-pc-linux-gnu"

%struct.SoftAesBlock = type { i32, i32, i32, i32 }

; Function Attrs: alwaysinline nounwind
define internal ptr @memcpy.inline(ptr noalias nonnull %0, ptr noalias nonnull %1, i64 %2) #3 {
  %4 = alloca ptr, align 8
  %5 = alloca ptr, align 8
  %6 = alloca i64, align 8
  store ptr %0, ptr %4, align 8
  store ptr %1, ptr %5, align 8
  store i64 %2, ptr %6, align 8
  %7 = load ptr, ptr %4, align 8
  %8 = load ptr, ptr %5, align 8
  %9 = load i64, ptr %6, align 8
  %10 = load ptr, ptr %4, align 8
  %11 = call i64 @llvm.objectsize.i64.p0(ptr %10, i1 false, i1 true, i1 true)
  %12 = call ptr @__memcpy_chk(ptr noundef %7, ptr noundef %8, i64 noundef %9, i64 noundef %11) #8
  ret ptr %12
}

; Function Attrs: inlinehint nounwind ssp uwtable
define internal void @store32_le(ptr noundef %0, i32 noundef %1) #2 {
  %3 = alloca ptr, align 8
  %4 = alloca i32, align 4
  store ptr %0, ptr %3, align 8
  store i32 %1, ptr %4, align 4
  %5 = load ptr, ptr %3, align 8
  %6 = call ptr @memcpy.inline(ptr noundef %5, ptr noundef %4, i64 noundef 4) #8
  ret void
}

; Function Attrs: inlinehint nounwind ssp uwtable
define internal i32 @load32_le(ptr noundef %0) #2 {
  %2 = alloca ptr, align 8
  %3 = alloca i32, align 4
  store ptr %0, ptr %2, align 8
  call void @llvm.lifetime.start.p0(i64 4, ptr %3) #8
  %4 = load ptr, ptr %2, align 8
  %5 = call ptr @memcpy.inline(ptr noundef %3, ptr noundef %4, i64 noundef 4) #8
  %6 = load i32, ptr %3, align 4
  call void @llvm.lifetime.end.p0(i64 4, ptr %3) #8
  ret i32 %6
}

; Function Attrs: inlinehint nounwind ssp uwtable
define internal void @softaes_block_store(ptr noundef %0, i64 %1, i64 %2) #2 {
  %4 = alloca %struct.SoftAesBlock, align 4
  %5 = alloca ptr, align 8
  %6 = getelementptr inbounds nuw { i64, i64 }, ptr %4, i32 0, i32 0
  store i64 %1, ptr %6, align 4
  %7 = getelementptr inbounds nuw { i64, i64 }, ptr %4, i32 0, i32 1
  store i64 %2, ptr %7, align 4
  store ptr %0, ptr %5, align 8
  %8 = load ptr, ptr %5, align 8
  %9 = getelementptr i8, ptr %8, i64 0
  %10 = getelementptr inbounds nuw %struct.SoftAesBlock, ptr %4, i32 0, i32 0
  %11 = load i32, ptr %10, align 4
  call void @store32_le(ptr noundef %9, i32 noundef %11)
  %12 = load ptr, ptr %5, align 8
  %13 = getelementptr i8, ptr %12, i64 4
  %14 = getelementptr inbounds nuw %struct.SoftAesBlock, ptr %4, i32 0, i32 1
  %15 = load i32, ptr %14, align 4
  call void @store32_le(ptr noundef %13, i32 noundef %15)
  %16 = load ptr, ptr %5, align 8
  %17 = getelementptr i8, ptr %16, i64 8
  %18 = getelementptr inbounds nuw %struct.SoftAesBlock, ptr %4, i32 0, i32 2
  %19 = load i32, ptr %18, align 4
  call void @store32_le(ptr noundef %17, i32 noundef %19)
  %20 = load ptr, ptr %5, align 8
  %21 = getelementptr i8, ptr %20, i64 12
  %22 = getelementptr inbounds nuw %struct.SoftAesBlock, ptr %4, i32 0, i32 3
  %23 = load i32, ptr %22, align 4
  call void @store32_le(ptr noundef %21, i32 noundef %23)
  ret void
}

; Function Attrs: inlinehint nounwind ssp uwtable
define internal { i64, i64 } @softaes_block_and(i64 %0, i64 %1, i64 %2, i64 %3) #2 {
  %5 = alloca %struct.SoftAesBlock, align 4
  %6 = alloca %struct.SoftAesBlock, align 4
  %7 = alloca %struct.SoftAesBlock, align 4
  %8 = getelementptr inbounds nuw { i64, i64 }, ptr %6, i32 0, i32 0
  store i64 %0, ptr %8, align 4
  %9 = getelementptr inbounds nuw { i64, i64 }, ptr %6, i32 0, i32 1
  store i64 %1, ptr %9, align 4
  %10 = getelementptr inbounds nuw { i64, i64 }, ptr %7, i32 0, i32 0
  store i64 %2, ptr %10, align 4
  %11 = getelementptr inbounds nuw { i64, i64 }, ptr %7, i32 0, i32 1
  store i64 %3, ptr %11, align 4
  %12 = getelementptr inbounds nuw %struct.SoftAesBlock, ptr %5, i32 0, i32 0
  %13 = getelementptr inbounds nuw %struct.SoftAesBlock, ptr %6, i32 0, i32 0
  %14 = load i32, ptr %13, align 4
  %15 = getelementptr inbounds nuw %struct.SoftAesBlock, ptr %7, i32 0, i32 0
  %16 = load i32, ptr %15, align 4
  %17 = and i32 %14, %16
  store i32 %17, ptr %12, align 4
  %18 = getelementptr inbounds nuw %struct.SoftAesBlock, ptr %5, i32 0, i32 1
  %19 = getelementptr inbounds nuw %struct.SoftAesBlock, ptr %6, i32 0, i32 1
  %20 = load i32, ptr %19, align 4
  %21 = getelementptr inbounds nuw %struct.SoftAesBlock, ptr %7, i32 0, i32 1
  %22 = load i32, ptr %21, align 4
  %23 = and i32 %20, %22
  store i32 %23, ptr %18, align 4
  %24 = getelementptr inbounds nuw %struct.SoftAesBlock, ptr %5, i32 0, i32 2
  %25 = getelementptr inbounds nuw %struct.SoftAesBlock, ptr %6, i32 0, i32 2
  %26 = load i32, ptr %25, align 4
  %27 = getelementptr inbounds nuw %struct.SoftAesBlock, ptr %7, i32 0, i32 2
  %28 = load i32, ptr %27, align 4
  %29 = and i32 %26, %28
  store i32 %29, ptr %24, align 4
  %30 = getelementptr inbounds nuw %struct.SoftAesBlock, ptr %5, i32 0, i32 3
  %31 = getelementptr inbounds nuw %struct.SoftAesBlock, ptr %6, i32 0, i32 3
  %32 = load i32, ptr %31, align 4
  %33 = getelementptr inbounds nuw %struct.SoftAesBlock, ptr %7, i32 0, i32 3
  %34 = load i32, ptr %33, align 4
  %35 = and i32 %32, %34
  store i32 %35, ptr %30, align 4
  %36 = load { i64, i64 }, ptr %5, align 4
  ret { i64, i64 } %36
}

; Function Attrs: inlinehint nounwind ssp uwtable
define internal { i64, i64 } @softaes_block_xor(i64 %0, i64 %1, i64 %2, i64 %3) #2 {
  %5 = alloca %struct.SoftAesBlock, align 4
  %6 = alloca %struct.SoftAesBlock, align 4
  %7 = alloca %struct.SoftAesBlock, align 4
  %8 = getelementptr inbounds nuw { i64, i64 }, ptr %6, i32 0, i32 0
  store i64 %0, ptr %8, align 4
  %9 = getelementptr inbounds nuw { i64, i64 }, ptr %6, i32 0, i32 1
  store i64 %1, ptr %9, align 4
  %10 = getelementptr inbounds nuw { i64, i64 }, ptr %7, i32 0, i32 0
  store i64 %2, ptr %10, align 4
  %11 = getelementptr inbounds nuw { i64, i64 }, ptr %7, i32 0, i32 1
  store i64 %3, ptr %11, align 4
  %12 = getelementptr inbounds nuw %struct.SoftAesBlock, ptr %5, i32 0, i32 0
  %13 = getelementptr inbounds nuw %struct.SoftAesBlock, ptr %6, i32 0, i32 0
  %14 = load i32, ptr %13, align 4
  %15 = getelementptr inbounds nuw %struct.SoftAesBlock, ptr %7, i32 0, i32 0
  %16 = load i32, ptr %15, align 4
  %17 = xor i32 %14, %16
  store i32 %17, ptr %12, align 4
  %18 = getelementptr inbounds nuw %struct.SoftAesBlock, ptr %5, i32 0, i32 1
  %19 = getelementptr inbounds nuw %struct.SoftAesBlock, ptr %6, i32 0, i32 1
  %20 = load i32, ptr %19, align 4
  %21 = getelementptr inbounds nuw %struct.SoftAesBlock, ptr %7, i32 0, i32 1
  %22 = load i32, ptr %21, align 4
  %23 = xor i32 %20, %22
  store i32 %23, ptr %18, align 4
  %24 = getelementptr inbounds nuw %struct.SoftAesBlock, ptr %5, i32 0, i32 2
  %25 = getelementptr inbounds nuw %struct.SoftAesBlock, ptr %6, i32 0, i32 2
  %26 = load i32, ptr %25, align 4
  %27 = getelementptr inbounds nuw %struct.SoftAesBlock, ptr %7, i32 0, i32 2
  %28 = load i32, ptr %27, align 4
  %29 = xor i32 %26, %28
  store i32 %29, ptr %24, align 4
  %30 = getelementptr inbounds nuw %struct.SoftAesBlock, ptr %5, i32 0, i32 3
  %31 = getelementptr inbounds nuw %struct.SoftAesBlock, ptr %6, i32 0, i32 3
  %32 = load i32, ptr %31, align 4
  %33 = getelementptr inbounds nuw %struct.SoftAesBlock, ptr %7, i32 0, i32 3
  %34 = load i32, ptr %33, align 4
  %35 = xor i32 %32, %34
  store i32 %35, ptr %30, align 4
  %36 = load { i64, i64 }, ptr %5, align 4
  ret { i64, i64 } %36
}

; Function Attrs: inlinehint nounwind ssp uwtable
define internal { i64, i64 } @softaes_block_load(ptr noundef %0) #2 {
  %2 = alloca %struct.SoftAesBlock, align 4
  %3 = alloca ptr, align 8
  store ptr %0, ptr %3, align 8
  %4 = getelementptr inbounds nuw %struct.SoftAesBlock, ptr %2, i32 0, i32 0
  %5 = load ptr, ptr %3, align 8
  %6 = getelementptr i8, ptr %5, i64 0
  %7 = call i32 @load32_le(ptr noundef %6)
  store i32 %7, ptr %4, align 4
  %8 = getelementptr inbounds nuw %struct.SoftAesBlock, ptr %2, i32 0, i32 1
  %9 = load ptr, ptr %3, align 8
  %10 = getelementptr i8, ptr %9, i64 4
  %11 = call i32 @load32_le(ptr noundef %10)
  store i32 %11, ptr %8, align 4
  %12 = getelementptr inbounds nuw %struct.SoftAesBlock, ptr %2, i32 0, i32 2
  %13 = load ptr, ptr %3, align 8
  %14 = getelementptr i8, ptr %13, i64 8
  %15 = call i32 @load32_le(ptr noundef %14)
  store i32 %15, ptr %12, align 4
  %16 = getelementptr inbounds nuw %struct.SoftAesBlock, ptr %2, i32 0, i32 3
  %17 = load ptr, ptr %3, align 8
  %18 = getelementptr i8, ptr %17, i64 12
  %19 = call i32 @load32_le(ptr noundef %18)
  store i32 %19, ptr %16, align 4
  %20 = load { i64, i64 }, ptr %2, align 4
  ret { i64, i64 } %20
}

; Function Attrs: nounwind ssp uwtable
define internal void @aegis128l_dec(ptr noundef %0, ptr noundef %1, ptr noundef %2) #0 {
  %4 = alloca ptr, align 8
  %5 = alloca ptr, align 8
  %6 = alloca ptr, align 8
  %7 = alloca %struct.SoftAesBlock, align 4
  %8 = alloca %struct.SoftAesBlock, align 4
  %9 = alloca %struct.SoftAesBlock, align 4
  %10 = alloca %struct.SoftAesBlock, align 4
  %11 = alloca %struct.SoftAesBlock, align 4
  %12 = alloca %struct.SoftAesBlock, align 4
  %13 = alloca %struct.SoftAesBlock, align 4
  %14 = alloca %struct.SoftAesBlock, align 4
  %15 = alloca %struct.SoftAesBlock, align 4
  %16 = alloca %struct.SoftAesBlock, align 4
  %17 = alloca %struct.SoftAesBlock, align 4
  %18 = alloca %struct.SoftAesBlock, align 4
  store ptr %0, ptr %4, align 8
  store ptr %1, ptr %5, align 8
  store ptr %2, ptr %6, align 8
  call void @llvm.lifetime.start.p0(i64 16, ptr %7) #8
  call void @llvm.lifetime.start.p0(i64 16, ptr %8) #8
  call void @llvm.lifetime.start.p0(i64 16, ptr %9) #8
  %19 = load ptr, ptr %5, align 8
  %20 = call { i64, i64 } @softaes_block_load(ptr noundef %19)
  %21 = getelementptr inbounds nuw { i64, i64 }, ptr %9, i32 0, i32 0
  %22 = extractvalue { i64, i64 } %20, 0
  store i64 %22, ptr %21, align 4
  %23 = getelementptr inbounds nuw { i64, i64 }, ptr %9, i32 0, i32 1
  %24 = extractvalue { i64, i64 } %20, 1
  store i64 %24, ptr %23, align 4
  call void @llvm.memcpy.p0.p0.i64(ptr align 4 %7, ptr align 4 %9, i64 16, i1 false)
  call void @llvm.lifetime.end.p0(i64 16, ptr %9) #8
  call void @llvm.lifetime.start.p0(i64 16, ptr %10) #8
  %25 = load ptr, ptr %5, align 8
  %26 = getelementptr i8, ptr %25, i64 16
  %27 = call { i64, i64 } @softaes_block_load(ptr noundef %26)
  %28 = getelementptr inbounds nuw { i64, i64 }, ptr %10, i32 0, i32 0
  %29 = extractvalue { i64, i64 } %27, 0
  store i64 %29, ptr %28, align 4
  %30 = getelementptr inbounds nuw { i64, i64 }, ptr %10, i32 0, i32 1
  %31 = extractvalue { i64, i64 } %27, 1
  store i64 %31, ptr %30, align 4
  call void @llvm.memcpy.p0.p0.i64(ptr align 4 %8, ptr align 4 %10, i64 16, i1 false)
  call void @llvm.lifetime.end.p0(i64 16, ptr %10) #8
  call void @llvm.lifetime.start.p0(i64 16, ptr %11) #8
  %32 = load ptr, ptr %6, align 8
  %33 = getelementptr %struct.SoftAesBlock, ptr %32, i64 6
  %34 = getelementptr inbounds nuw { i64, i64 }, ptr %7, i32 0, i32 0
  %35 = load i64, ptr %34, align 4
  %36 = getelementptr inbounds nuw { i64, i64 }, ptr %7, i32 0, i32 1
  %37 = load i64, ptr %36, align 4
  %38 = getelementptr inbounds nuw { i64, i64 }, ptr %33, i32 0, i32 0
  %39 = load i64, ptr %38, align 4
  %40 = getelementptr inbounds nuw { i64, i64 }, ptr %33, i32 0, i32 1
  %41 = load i64, ptr %40, align 4
  %42 = call { i64, i64 } @softaes_block_xor(i64 %35, i64 %37, i64 %39, i64 %41)
  %43 = getelementptr inbounds nuw { i64, i64 }, ptr %11, i32 0, i32 0
  %44 = extractvalue { i64, i64 } %42, 0
  store i64 %44, ptr %43, align 4
  %45 = getelementptr inbounds nuw { i64, i64 }, ptr %11, i32 0, i32 1
  %46 = extractvalue { i64, i64 } %42, 1
  store i64 %46, ptr %45, align 4
  call void @llvm.memcpy.p0.p0.i64(ptr align 4 %7, ptr align 4 %11, i64 16, i1 false)
  call void @llvm.lifetime.end.p0(i64 16, ptr %11) #8
  call void @llvm.lifetime.start.p0(i64 16, ptr %12) #8
  %47 = load ptr, ptr %6, align 8
  %48 = getelementptr %struct.SoftAesBlock, ptr %47, i64 1
  %49 = getelementptr inbounds nuw { i64, i64 }, ptr %7, i32 0, i32 0
  %50 = load i64, ptr %49, align 4
  %51 = getelementptr inbounds nuw { i64, i64 }, ptr %7, i32 0, i32 1
  %52 = load i64, ptr %51, align 4
  %53 = getelementptr inbounds nuw { i64, i64 }, ptr %48, i32 0, i32 0
  %54 = load i64, ptr %53, align 4
  %55 = getelementptr inbounds nuw { i64, i64 }, ptr %48, i32 0, i32 1
  %56 = load i64, ptr %55, align 4
  %57 = call { i64, i64 } @softaes_block_xor(i64 %50, i64 %52, i64 %54, i64 %56)
  %58 = getelementptr inbounds nuw { i64, i64 }, ptr %12, i32 0, i32 0
  %59 = extractvalue { i64, i64 } %57, 0
  store i64 %59, ptr %58, align 4
  %60 = getelementptr inbounds nuw { i64, i64 }, ptr %12, i32 0, i32 1
  %61 = extractvalue { i64, i64 } %57, 1
  store i64 %61, ptr %60, align 4
  call void @llvm.memcpy.p0.p0.i64(ptr align 4 %7, ptr align 4 %12, i64 16, i1 false)
  call void @llvm.lifetime.end.p0(i64 16, ptr %12) #8
  call void @llvm.lifetime.start.p0(i64 16, ptr %13) #8
  %62 = load ptr, ptr %6, align 8
  %63 = getelementptr %struct.SoftAesBlock, ptr %62, i64 5
  %64 = getelementptr inbounds nuw { i64, i64 }, ptr %8, i32 0, i32 0
  %65 = load i64, ptr %64, align 4
  %66 = getelementptr inbounds nuw { i64, i64 }, ptr %8, i32 0, i32 1
  %67 = load i64, ptr %66, align 4
  %68 = getelementptr inbounds nuw { i64, i64 }, ptr %63, i32 0, i32 0
  %69 = load i64, ptr %68, align 4
  %70 = getelementptr inbounds nuw { i64, i64 }, ptr %63, i32 0, i32 1
  %71 = load i64, ptr %70, align 4
  %72 = call { i64, i64 } @softaes_block_xor(i64 %65, i64 %67, i64 %69, i64 %71)
  %73 = getelementptr inbounds nuw { i64, i64 }, ptr %13, i32 0, i32 0
  %74 = extractvalue { i64, i64 } %72, 0
  store i64 %74, ptr %73, align 4
  %75 = getelementptr inbounds nuw { i64, i64 }, ptr %13, i32 0, i32 1
  %76 = extractvalue { i64, i64 } %72, 1
  store i64 %76, ptr %75, align 4
  call void @llvm.memcpy.p0.p0.i64(ptr align 4 %8, ptr align 4 %13, i64 16, i1 false)
  call void @llvm.lifetime.end.p0(i64 16, ptr %13) #8
  call void @llvm.lifetime.start.p0(i64 16, ptr %14) #8
  %77 = load ptr, ptr %6, align 8
  %78 = getelementptr %struct.SoftAesBlock, ptr %77, i64 2
  %79 = getelementptr inbounds nuw { i64, i64 }, ptr %8, i32 0, i32 0
  %80 = load i64, ptr %79, align 4
  %81 = getelementptr inbounds nuw { i64, i64 }, ptr %8, i32 0, i32 1
  %82 = load i64, ptr %81, align 4
  %83 = getelementptr inbounds nuw { i64, i64 }, ptr %78, i32 0, i32 0
  %84 = load i64, ptr %83, align 4
  %85 = getelementptr inbounds nuw { i64, i64 }, ptr %78, i32 0, i32 1
  %86 = load i64, ptr %85, align 4
  %87 = call { i64, i64 } @softaes_block_xor(i64 %80, i64 %82, i64 %84, i64 %86)
  %88 = getelementptr inbounds nuw { i64, i64 }, ptr %14, i32 0, i32 0
  %89 = extractvalue { i64, i64 } %87, 0
  store i64 %89, ptr %88, align 4
  %90 = getelementptr inbounds nuw { i64, i64 }, ptr %14, i32 0, i32 1
  %91 = extractvalue { i64, i64 } %87, 1
  store i64 %91, ptr %90, align 4
  call void @llvm.memcpy.p0.p0.i64(ptr align 4 %8, ptr align 4 %14, i64 16, i1 false)
  call void @llvm.lifetime.end.p0(i64 16, ptr %14) #8
  call void @llvm.lifetime.start.p0(i64 16, ptr %15) #8
  %92 = load ptr, ptr %6, align 8
  %93 = getelementptr %struct.SoftAesBlock, ptr %92, i64 2
  %94 = load ptr, ptr %6, align 8
  %95 = getelementptr %struct.SoftAesBlock, ptr %94, i64 3
  %96 = getelementptr inbounds nuw { i64, i64 }, ptr %93, i32 0, i32 0
  %97 = load i64, ptr %96, align 4
  %98 = getelementptr inbounds nuw { i64, i64 }, ptr %93, i32 0, i32 1
  %99 = load i64, ptr %98, align 4
  %100 = getelementptr inbounds nuw { i64, i64 }, ptr %95, i32 0, i32 0
  %101 = load i64, ptr %100, align 4
  %102 = getelementptr inbounds nuw { i64, i64 }, ptr %95, i32 0, i32 1
  %103 = load i64, ptr %102, align 4
  %104 = call { i64, i64 } @softaes_block_and(i64 %97, i64 %99, i64 %101, i64 %103)
  %105 = getelementptr inbounds nuw { i64, i64 }, ptr %16, i32 0, i32 0
  %106 = extractvalue { i64, i64 } %104, 0
  store i64 %106, ptr %105, align 4
  %107 = getelementptr inbounds nuw { i64, i64 }, ptr %16, i32 0, i32 1
  %108 = extractvalue { i64, i64 } %104, 1
  store i64 %108, ptr %107, align 4
  %109 = getelementptr inbounds nuw { i64, i64 }, ptr %7, i32 0, i32 0
  %110 = load i64, ptr %109, align 4
  %111 = getelementptr inbounds nuw { i64, i64 }, ptr %7, i32 0, i32 1
  %112 = load i64, ptr %111, align 4
  %113 = getelementptr inbounds nuw { i64, i64 }, ptr %16, i32 0, i32 0
  %114 = load i64, ptr %113, align 4
  %115 = getelementptr inbounds nuw { i64, i64 }, ptr %16, i32 0, i32 1
  %116 = load i64, ptr %115, align 4
  %117 = call { i64, i64 } @softaes_block_xor(i64 %110, i64 %112, i64 %114, i64 %116)
  %118 = getelementptr inbounds nuw { i64, i64 }, ptr %15, i32 0, i32 0
  %119 = extractvalue { i64, i64 } %117, 0
  store i64 %119, ptr %118, align 4
  %120 = getelementptr inbounds nuw { i64, i64 }, ptr %15, i32 0, i32 1
  %121 = extractvalue { i64, i64 } %117, 1
  store i64 %121, ptr %120, align 4
  call void @llvm.memcpy.p0.p0.i64(ptr align 4 %7, ptr align 4 %15, i64 16, i1 false)
  call void @llvm.lifetime.end.p0(i64 16, ptr %15) #8
  call void @llvm.lifetime.start.p0(i64 16, ptr %17) #8
  %122 = load ptr, ptr %6, align 8
  %123 = getelementptr %struct.SoftAesBlock, ptr %122, i64 6
  %124 = load ptr, ptr %6, align 8
  %125 = getelementptr %struct.SoftAesBlock, ptr %124, i64 7
  %126 = getelementptr inbounds nuw { i64, i64 }, ptr %123, i32 0, i32 0
  %127 = load i64, ptr %126, align 4
  %128 = getelementptr inbounds nuw { i64, i64 }, ptr %123, i32 0, i32 1
  %129 = load i64, ptr %128, align 4
  %130 = getelementptr inbounds nuw { i64, i64 }, ptr %125, i32 0, i32 0
  %131 = load i64, ptr %130, align 4
  %132 = getelementptr inbounds nuw { i64, i64 }, ptr %125, i32 0, i32 1
  %133 = load i64, ptr %132, align 4
  %134 = call { i64, i64 } @softaes_block_and(i64 %127, i64 %129, i64 %131, i64 %133)
  %135 = getelementptr inbounds nuw { i64, i64 }, ptr %18, i32 0, i32 0
  %136 = extractvalue { i64, i64 } %134, 0
  store i64 %136, ptr %135, align 4
  %137 = getelementptr inbounds nuw { i64, i64 }, ptr %18, i32 0, i32 1
  %138 = extractvalue { i64, i64 } %134, 1
  store i64 %138, ptr %137, align 4
  %139 = getelementptr inbounds nuw { i64, i64 }, ptr %8, i32 0, i32 0
  %140 = load i64, ptr %139, align 4
  %141 = getelementptr inbounds nuw { i64, i64 }, ptr %8, i32 0, i32 1
  %142 = load i64, ptr %141, align 4
  %143 = getelementptr inbounds nuw { i64, i64 }, ptr %18, i32 0, i32 0
  %144 = load i64, ptr %143, align 4
  %145 = getelementptr inbounds nuw { i64, i64 }, ptr %18, i32 0, i32 1
  %146 = load i64, ptr %145, align 4
  %147 = call { i64, i64 } @softaes_block_xor(i64 %140, i64 %142, i64 %144, i64 %146)
  %148 = getelementptr inbounds nuw { i64, i64 }, ptr %17, i32 0, i32 0
  %149 = extractvalue { i64, i64 } %147, 0
  store i64 %149, ptr %148, align 4
  %150 = getelementptr inbounds nuw { i64, i64 }, ptr %17, i32 0, i32 1
  %151 = extractvalue { i64, i64 } %147, 1
  store i64 %151, ptr %150, align 4
  call void @llvm.memcpy.p0.p0.i64(ptr align 4 %8, ptr align 4 %17, i64 16, i1 false)
  call void @llvm.lifetime.end.p0(i64 16, ptr %17) #8
  %152 = load ptr, ptr %4, align 8
  %153 = getelementptr inbounds nuw { i64, i64 }, ptr %7, i32 0, i32 0
  %154 = load i64, ptr %153, align 4
  %155 = getelementptr inbounds nuw { i64, i64 }, ptr %7, i32 0, i32 1
  %156 = load i64, ptr %155, align 4
  call void @softaes_block_store(ptr noundef %152, i64 %154, i64 %156)
  %157 = load ptr, ptr %4, align 8
  %158 = getelementptr i8, ptr %157, i64 16
  %159 = getelementptr inbounds nuw { i64, i64 }, ptr %8, i32 0, i32 0
  %160 = load i64, ptr %159, align 4
  %161 = getelementptr inbounds nuw { i64, i64 }, ptr %8, i32 0, i32 1
  %162 = load i64, ptr %161, align 4
  call void @softaes_block_store(ptr noundef %158, i64 %160, i64 %162)
  %163 = load ptr, ptr %6, align 8
  %164 = getelementptr inbounds nuw { i64, i64 }, ptr %7, i32 0, i32 0
  %165 = load i64, ptr %164, align 4
  %166 = getelementptr inbounds nuw { i64, i64 }, ptr %7, i32 0, i32 1
  %167 = load i64, ptr %166, align 4
  %168 = getelementptr inbounds nuw { i64, i64 }, ptr %8, i32 0, i32 0
  %169 = load i64, ptr %168, align 4
  %170 = getelementptr inbounds nuw { i64, i64 }, ptr %8, i32 0, i32 1
  %171 = load i64, ptr %170, align 4
  call void @aegis128l_update(ptr noundef %163, i64 %165, i64 %167, i64 %169, i64 %171)
  call void @llvm.lifetime.end.p0(i64 16, ptr %8) #8
  call void @llvm.lifetime.end.p0(i64 16, ptr %7) #8
  ret void
}